; Function Attrs: inlinehint mustprogress uwtable
define internal fastcc void @_ZN12_GLOBAL__N_19data_typeC2Ev() unnamed_addr #0 align 2 personality ptr @__gxx_personality_v0 {
  store i32 0, ptr getelementptr inbounds (i8, ptr @_ZZN12_GLOBAL__N_18get_dataEvE6result, i64 8), align 8, !tbaa !65
  store ptr null, ptr getelementptr inbounds (i8, ptr @_ZZN12_GLOBAL__N_18get_dataEvE6result, i64 16), align 8, !tbaa !36
  store ptr getelementptr inbounds (i8, ptr @_ZZN12_GLOBAL__N_18get_dataEvE6result, i64 8), ptr getelementptr inbounds (i8, ptr @_ZZN12_GLOBAL__N_18get_dataEvE6result, i64 24), align 8, !tbaa !66
  store ptr getelementptr inbounds (i8, ptr @_ZZN12_GLOBAL__N_18get_dataEvE6result, i64 8), ptr getelementptr inbounds (i8, ptr @_ZZN12_GLOBAL__N_18get_dataEvE6result, i64 32), align 8, !tbaa !67
  store i64 0, ptr getelementptr inbounds (i8, ptr @_ZZN12_GLOBAL__N_18get_dataEvE6result, i64 40), align 8, !tbaa !68
  invoke void @_ZN5boost12shared_mutexC2Ev(ptr noundef nonnull align 8 dereferenceable(312) getelementptr inbounds nuw (i8, ptr @_ZZN12_GLOBAL__N_18get_dataEvE6result, i64 48))
          to label %1 unwind label %2

1:                                                ; preds = %0
  ret void

2:                                                ; preds = %0
  %3 = landingpad { ptr, i32 }
          cleanup
  tail call void @_ZNSt3mapISt6vectorIPKSt9type_infoSaIS3_EEPFvvESt4lessIS5_ESaISt4pairIKS5_S7_EEED2Ev(ptr noundef nonnull align 8 dereferenceable(48) @_ZZN12_GLOBAL__N_18get_dataEvE6result) #24
  resume { ptr, i32 } %3
}